target datalayout = "e-m:e-p270:32:32-p271:32:32-p272:64:64-i64:64-i128:128-f80:128-n8:16:32:64-S128"
target triple = "x86_64-pc-linux-gnu"

%struct.FSE_decode_t = type { i16, i8, i8 }
%struct.FSE_DTableHeader = type { i16, i16 }

; Function Attrs: alwaysinline nounwind uwtable
define internal i32 @FSE_highbit32(i32 noundef %0) #5 {
  %2 = alloca i32, align 4
  store i32 %0, ptr %2, align 4, !tbaa !11
  %3 = load i32, ptr %2, align 4, !tbaa !11
  %4 = call i32 @llvm.ctlz.i32(i32 %3, i1 true)
  %5 = xor i32 %4, 31
  ret i32 %5
}

; Function Attrs: nounwind uwtable
define internal i32 @FSE_tableStep(i32 noundef %0) #0 {
  %2 = alloca i32, align 4
  store i32 %0, ptr %2, align 4, !tbaa !11
  %3 = load i32, ptr %2, align 4, !tbaa !11
  %4 = lshr i32 %3, 1
  %5 = load i32, ptr %2, align 4, !tbaa !11
  %6 = lshr i32 %5, 3
  %7 = add i32 %4, %6
  %8 = add i32 %7, 3
  ret i32 %8
}

; Function Attrs: nounwind uwtable
define internal i64 @FSE_buildDTable(ptr noundef %0, ptr noundef %1, i32 noundef %2, i32 noundef %3) #0 {
  %5 = alloca i64, align 8
  %6 = alloca ptr, align 8
  %7 = alloca ptr, align 8
  %8 = alloca i32, align 4
  %9 = alloca i32, align 4
  %10 = alloca ptr, align 8
  %11 = alloca ptr, align 8
  %12 = alloca ptr, align 8
  %13 = alloca i32, align 4
  %14 = alloca i32, align 4
  %15 = alloca i32, align 4
  %16 = alloca [256 x i16], align 16
  %17 = alloca i32, align 4
  %18 = alloca i32, align 4
  %19 = alloca i16, align 2
  %20 = alloca i32, align 4
  %21 = alloca i32, align 4
  %22 = alloca i32, align 4
  %23 = alloca i32, align 4
  %24 = alloca i32, align 4
  %25 = alloca i8, align 1
  %26 = alloca i16, align 2
  store ptr %0, ptr %6, align 8, !tbaa !33
  store ptr %1, ptr %7, align 8, !tbaa !43
  store i32 %2, ptr %8, align 4, !tbaa !11
  store i32 %3, ptr %9, align 4, !tbaa !11
  call void @llvm.lifetime.start.p0(i64 8, ptr %10) #8
  %27 = load ptr, ptr %6, align 8, !tbaa !33
  store ptr %27, ptr %10, align 8, !tbaa !7
  call void @llvm.lifetime.start.p0(i64 8, ptr %11) #8
  %28 = load ptr, ptr %10, align 8, !tbaa !7
  store ptr %28, ptr %11, align 8, !tbaa !7
  call void @llvm.lifetime.start.p0(i64 8, ptr %12) #8
  %29 = load ptr, ptr %10, align 8, !tbaa !7
  %30 = getelementptr inbounds %struct.FSE_decode_t, ptr %29, i64 1
  store ptr %30, ptr %12, align 8, !tbaa !7
  call void @llvm.lifetime.start.p0(i64 4, ptr %13) #8
  %31 = load i32, ptr %9, align 4, !tbaa !11
  %32 = shl i32 1, %31
  store i32 %32, ptr %13, align 4, !tbaa !11
  call void @llvm.lifetime.start.p0(i64 4, ptr %14) #8
  %33 = load i32, ptr %13, align 4, !tbaa !11
  %34 = sub i32 %33, 1
  store i32 %34, ptr %14, align 4, !tbaa !11
  call void @llvm.lifetime.start.p0(i64 4, ptr %15) #8
  %35 = load i32, ptr %13, align 4, !tbaa !11
  %36 = call i32 @FSE_tableStep(i32 noundef %35)
  store i32 %36, ptr %15, align 4, !tbaa !11
  call void @llvm.lifetime.start.p0(i64 512, ptr %16) #8
  call void @llvm.lifetime.start.p0(i64 4, ptr %17) #8
  store i32 0, ptr %17, align 4, !tbaa !11
  call void @llvm.lifetime.start.p0(i64 4, ptr %18) #8
  %37 = load i32, ptr %13, align 4, !tbaa !11
  %38 = sub i32 %37, 1
  store i32 %38, ptr %18, align 4, !tbaa !11
  call void @llvm.lifetime.start.p0(i64 2, ptr %19) #8
  %39 = load i32, ptr %9, align 4, !tbaa !11
  %40 = sub i32 %39, 1
  %41 = shl i32 1, %40
  %42 = trunc i32 %41 to i16
  store i16 %42, ptr %19, align 2, !tbaa !47
  call void @llvm.lifetime.start.p0(i64 4, ptr %20) #8
  store i32 1, ptr %20, align 4, !tbaa !11
  call void @llvm.lifetime.start.p0(i64 4, ptr %21) #8
  %43 = load i32, ptr %8, align 4, !tbaa !11
  %44 = icmp ugt i32 %43, 255
  br i1 %44, label %45, label %46

45:                                               ; preds = %4
  store i64 -3, ptr %5, align 8
  store i32 1, ptr %22, align 4
  br label %208

46:                                               ; preds = %4
  %47 = load i32, ptr %9, align 4, !tbaa !11
  %48 = icmp ugt i32 %47, 12
  br i1 %48, label %49, label %50

49:                                               ; preds = %46
  store i64 -2, ptr %5, align 8
  store i32 1, ptr %22, align 4
  br label %208

50:                                               ; preds = %46
  %51 = load i32, ptr %9, align 4, !tbaa !11
  %52 = trunc i32 %51 to i16
  %53 = load ptr, ptr %11, align 8, !tbaa !7
  %54 = getelementptr inbounds %struct.FSE_DTableHeader, ptr %53, i64 0
  %55 = getelementptr inbounds nuw %struct.FSE_DTableHeader, ptr %54, i32 0, i32 0
  store i16 %52, ptr %55, align 2, !tbaa !67
  store i32 0, ptr %21, align 4, !tbaa !11
  br label %56

56:                                               ; preds = %101, %50
  %57 = load i32, ptr %21, align 4, !tbaa !11
  %58 = load i32, ptr %8, align 4, !tbaa !11
  %59 = icmp ule i32 %57, %58
  br i1 %59, label %60, label %104

60:                                               ; preds = %56
  %61 = load ptr, ptr %7, align 8, !tbaa !43
  %62 = load i32, ptr %21, align 4, !tbaa !11
  %63 = zext i32 %62 to i64
  %64 = getelementptr inbounds nuw i16, ptr %61, i64 %63
  %65 = load i16, ptr %64, align 2, !tbaa !47
  %66 = sext i16 %65 to i32
  %67 = icmp eq i32 %66, -1
  br i1 %67, label %68, label %80

68:                                               ; preds = %60
  %69 = load i32, ptr %21, align 4, !tbaa !11
  %70 = trunc i32 %69 to i8
  %71 = load ptr, ptr %12, align 8, !tbaa !7
  %72 = load i32, ptr %18, align 4, !tbaa !11
  %73 = add i32 %72, -1
  store i32 %73, ptr %18, align 4, !tbaa !11
  %74 = zext i32 %72 to i64
  %75 = getelementptr inbounds nuw %struct.FSE_decode_t, ptr %71, i64 %74
  %76 = getelementptr inbounds nuw %struct.FSE_decode_t, ptr %75, i32 0, i32 1
  store i8 %70, ptr %76, align 2, !tbaa !69
  %77 = load i32, ptr %21, align 4, !tbaa !11
  %78 = zext i32 %77 to i64
  %79 = getelementptr inbounds nuw [256 x i16], ptr %16, i64 0, i64 %78
  store i16 1, ptr %79, align 2, !tbaa !47
  br label %100

80:                                               ; preds = %60
  %81 = load ptr, ptr %7, align 8, !tbaa !43
  %82 = load i32, ptr %21, align 4, !tbaa !11
  %83 = zext i32 %82 to i64
  %84 = getelementptr inbounds nuw i16, ptr %81, i64 %83
  %85 = load i16, ptr %84, align 2, !tbaa !47
  %86 = sext i16 %85 to i32
  %87 = load i16, ptr %19, align 2, !tbaa !47
  %88 = sext i16 %87 to i32
  %89 = icmp sge i32 %86, %88
  br i1 %89, label %90, label %91

90:                                               ; preds = %80
  store i32 0, ptr %20, align 4, !tbaa !11
  br label %91

91:                                               ; preds = %90, %80
  %92 = load ptr, ptr %7, align 8, !tbaa !43
  %93 = load i32, ptr %21, align 4, !tbaa !11
  %94 = zext i32 %93 to i64
  %95 = getelementptr inbounds nuw i16, ptr %92, i64 %94
  %96 = load i16, ptr %95, align 2, !tbaa !47
  %97 = load i32, ptr %21, align 4, !tbaa !11
  %98 = zext i32 %97 to i64
  %99 = getelementptr inbounds nuw [256 x i16], ptr %16, i64 0, i64 %98
  store i16 %96, ptr %99, align 2, !tbaa !47
  br label %100

100:                                              ; preds = %91, %68
  br label %101

101:                                              ; preds = %100
  %102 = load i32, ptr %21, align 4, !tbaa !11
  %103 = add i32 %102, 1
  store i32 %103, ptr %21, align 4, !tbaa !11
  br label %56, !llvm.loop !71

104:                                              ; preds = %56
  store i32 0, ptr %21, align 4, !tbaa !11
  br label %105

105:                                              ; preds = %147, %104
  %106 = load i32, ptr %21, align 4, !tbaa !11
  %107 = load i32, ptr %8, align 4, !tbaa !11
  %108 = icmp ule i32 %106, %107
  br i1 %108, label %109, label %150

109:                                              ; preds = %105
  call void @llvm.lifetime.start.p0(i64 4, ptr %23) #8
  store i32 0, ptr %23, align 4, !tbaa !11
  br label %110

110:                                              ; preds = %143, %109
  %111 = load i32, ptr %23, align 4, !tbaa !11
  %112 = load ptr, ptr %7, align 8, !tbaa !43
  %113 = load i32, ptr %21, align 4, !tbaa !11
  %114 = zext i32 %113 to i64
  %115 = getelementptr inbounds nuw i16, ptr %112, i64 %114
  %116 = load i16, ptr %115, align 2, !tbaa !47
  %117 = sext i16 %116 to i32
  %118 = icmp slt i32 %111, %117
  br i1 %118, label %119, label %146

119:                                              ; preds = %110
  %120 = load i32, ptr %21, align 4, !tbaa !11
  %121 = trunc i32 %120 to i8
  %122 = load ptr, ptr %12, align 8, !tbaa !7
  %123 = load i32, ptr %17, align 4, !tbaa !11
  %124 = zext i32 %123 to i64
  %125 = getelementptr inbounds nuw %struct.FSE_decode_t, ptr %122, i64 %124
  %126 = getelementptr inbounds nuw %struct.FSE_decode_t, ptr %125, i32 0, i32 1
  store i8 %121, ptr %126, align 2, !tbaa !69
  %127 = load i32, ptr %17, align 4, !tbaa !11
  %128 = load i32, ptr %15, align 4, !tbaa !11
  %129 = add i32 %127, %128
  %130 = load i32, ptr %14, align 4, !tbaa !11
  %131 = and i32 %129, %130
  store i32 %131, ptr %17, align 4, !tbaa !11
  br label %132

132:                                              ; preds = %136, %119
  %133 = load i32, ptr %17, align 4, !tbaa !11
  %134 = load i32, ptr %18, align 4, !tbaa !11
  %135 = icmp ugt i32 %133, %134
  br i1 %135, label %136, label %142

136:                                              ; preds = %132
  %137 = load i32, ptr %17, align 4, !tbaa !11
  %138 = load i32, ptr %15, align 4, !tbaa !11
  %139 = add i32 %137, %138
  %140 = load i32, ptr %14, align 4, !tbaa !11
  %141 = and i32 %139, %140
  store i32 %141, ptr %17, align 4, !tbaa !11
  br label %132, !llvm.loop !72

142:                                              ; preds = %132
  br label %143

143:                                              ; preds = %142
  %144 = load i32, ptr %23, align 4, !tbaa !11
  %145 = add nsw i32 %144, 1
  store i32 %145, ptr %23, align 4, !tbaa !11
  br label %110, !llvm.loop !73

146:                                              ; preds = %110
  call void @llvm.lifetime.end.p0(i64 4, ptr %23) #8
  br label %147

147:                                              ; preds = %146
  %148 = load i32, ptr %21, align 4, !tbaa !11
  %149 = add i32 %148, 1
  store i32 %149, ptr %21, align 4, !tbaa !11
  br label %105, !llvm.loop !74

150:                                              ; preds = %105
  %151 = load i32, ptr %17, align 4, !tbaa !11
  %152 = icmp ne i32 %151, 0
  br i1 %152, label %153, label %154

153:                                              ; preds = %150
  store i64 -1, ptr %5, align 8
  store i32 1, ptr %22, align 4
  br label %208

154:                                              ; preds = %150
  call void @llvm.lifetime.start.p0(i64 4, ptr %24) #8
  store i32 0, ptr %24, align 4, !tbaa !11
  br label %155

155:                                              ; preds = %200, %154
  %156 = load i32, ptr %24, align 4, !tbaa !11
  %157 = load i32, ptr %13, align 4, !tbaa !11
  %158 = icmp ult i32 %156, %157
  br i1 %158, label %159, label %203

159:                                              ; preds = %155
  call void @llvm.lifetime.start.p0(i64 1, ptr %25) #8
  %160 = load ptr, ptr %12, align 8, !tbaa !7
  %161 = load i32, ptr %24, align 4, !tbaa !11
  %162 = zext i32 %161 to i64
  %163 = getelementptr inbounds nuw %struct.FSE_decode_t, ptr %160, i64 %162
  %164 = getelementptr inbounds nuw %struct.FSE_decode_t, ptr %163, i32 0, i32 1
  %165 = load i8, ptr %164, align 2, !tbaa !69
  store i8 %165, ptr %25, align 1, !tbaa !15
  call void @llvm.lifetime.start.p0(i64 2, ptr %26) #8
  %166 = load i8, ptr %25, align 1, !tbaa !15
  %167 = zext i8 %166 to i64
  %168 = getelementptr inbounds nuw [256 x i16], ptr %16, i64 0, i64 %167
  %169 = load i16, ptr %168, align 2, !tbaa !47
  %170 = add i16 %169, 1
  store i16 %170, ptr %168, align 2, !tbaa !47
  store i16 %169, ptr %26, align 2, !tbaa !47
  %171 = load i32, ptr %9, align 4, !tbaa !11
  %172 = load i16, ptr %26, align 2, !tbaa !47
  %173 = zext i16 %172 to i32
  %174 = call i32 @FSE_highbit32(i32 noundef %173)
  %175 = sub i32 %171, %174
  %176 = trunc i32 %175 to i8
  %177 = load ptr, ptr %12, align 8, !tbaa !7
  %178 = load i32, ptr %24, align 4, !tbaa !11
  %179 = zext i32 %178 to i64
  %180 = getelementptr inbounds nuw %struct.FSE_decode_t, ptr %177, i64 %179
  %181 = getelementptr inbounds nuw %struct.FSE_decode_t, ptr %180, i32 0, i32 2
  store i8 %176, ptr %181, align 1, !tbaa !75
  %182 = load i16, ptr %26, align 2, !tbaa !47
  %183 = zext i16 %182 to i32
  %184 = load ptr, ptr %12, align 8, !tbaa !7
  %185 = load i32, ptr %24, align 4, !tbaa !11
  %186 = zext i32 %185 to i64
  %187 = getelementptr inbounds nuw %struct.FSE_decode_t, ptr %184, i64 %186
  %188 = getelementptr inbounds nuw %struct.FSE_decode_t, ptr %187, i32 0, i32 2
  %189 = load i8, ptr %188, align 1, !tbaa !75
  %190 = zext i8 %189 to i32
  %191 = shl i32 %183, %190
  %192 = load i32, ptr %13, align 4, !tbaa !11
  %193 = sub i32 %191, %192
  %194 = trunc i32 %193 to i16
  %195 = load ptr, ptr %12, align 8, !tbaa !7
  %196 = load i32, ptr %24, align 4, !tbaa !11
  %197 = zext i32 %196 to i64
  %198 = getelementptr inbounds nuw %struct.FSE_decode_t, ptr %195, i64 %197
  %199 = getelementptr inbounds nuw %struct.FSE_decode_t, ptr %198, i32 0, i32 0
  store i16 %194, ptr %199, align 2, !tbaa !76
  call void @llvm.lifetime.end.p0(i64 2, ptr %26) #8
  call void @llvm.lifetime.end.p0(i64 1, ptr %25) #8
  br label %200

200:                                              ; preds = %159
  %201 = load i32, ptr %24, align 4, !tbaa !11
  %202 = add i32 %201, 1
  store i32 %202, ptr %24, align 4, !tbaa !11
  br label %155, !llvm.loop !77

203:                                              ; preds = %155
  call void @llvm.lifetime.end.p0(i64 4, ptr %24) #8
  %204 = load i32, ptr %20, align 4, !tbaa !11
  %205 = trunc i32 %204 to i16
  %206 = load ptr, ptr %11, align 8, !tbaa !7
  %207 = getelementptr inbounds nuw %struct.FSE_DTableHeader, ptr %206, i32 0, i32 1
  store i16 %205, ptr %207, align 2, !tbaa !78
  store i64 0, ptr %5, align 8
  store i32 1, ptr %22, align 4
  br label %208

208:                                              ; preds = %203, %153, %49, %45
  call void @llvm.lifetime.end.p0(i64 4, ptr %21) #8
  call void @llvm.lifetime.end.p0(i64 4, ptr %20) #8
  call void @llvm.lifetime.end.p0(i64 2, ptr %19) #8
  call void @llvm.lifetime.end.p0(i64 4, ptr %18) #8
  call void @llvm.lifetime.end.p0(i64 4, ptr %17) #8
  call void @llvm.lifetime.end.p0(i64 512, ptr %16) #8
  call void @llvm.lifetime.end.p0(i64 4, ptr %15) #8
  call void @llvm.lifetime.end.p0(i64 4, ptr %14) #8
  call void @llvm.lifetime.end.p0(i64 4, ptr %13) #8
  call void @llvm.lifetime.end.p0(i64 8, ptr %12) #8
  call void @llvm.lifetime.end.p0(i64 8, ptr %11) #8
  call void @llvm.lifetime.end.p0(i64 8, ptr %10) #8
  %209 = load i64, ptr %5, align 8
  ret i64 %209
}