; Function Attrs: nofree norecurse nosync nounwind memory(argmem: readwrite) uwtable
define internal fastcc range(i64 -3, 1) i64 @FSE_buildDTable(ptr noundef captures(none) %0, ptr noundef nonnull readonly captures(none) %1, i32 noundef %2, i32 noundef %3) unnamed_addr #3 {
  %5 = alloca [256 x i16], align 16
  %6 = getelementptr inbounds nuw i8, ptr %0, i64 4
  %7 = shl nuw i32 1, %3
  %8 = add i32 %7, -1
  %9 = lshr i32 %7, 1
  %10 = lshr i32 %7, 3
  %11 = add nuw nsw i32 %10, 3
  %12 = add nuw nsw i32 %11, %9
  call void @llvm.lifetime.start.p0(i64 512, ptr nonnull %5) #16
  %13 = icmp ugt i32 %2, 255
  br i1 %13, label %65, label %14

14:                                               ; preds = %4
  %15 = icmp ugt i32 %3, 12
  br i1 %15, label %65, label %16

16:                                               ; preds = %14
  %17 = trunc nuw nsw i32 %3 to i16
  store i16 %17, ptr %0, align 2, !tbaa !10
  %sext = shl nuw nsw i32 32768, %3
  %18 = lshr exact i32 %sext, 16
  %19 = add nuw nsw i32 %2, 1
  %wide.trip.count = zext nneg i32 %19 to i64
  br label %20

20:                                               ; preds = %16, %31
  %indvars.iv = phi i64 [ 0, %16 ], [ %indvars.iv.next, %31 ]
  %.06986 = phi i16 [ 1, %16 ], [ %.271, %31 ]
  %.07285 = phi i32 [ %8, %16 ], [ %.173, %31 ]
  %21 = getelementptr inbounds nuw i16, ptr %1, i64 %indvars.iv
  %22 = load i16, ptr %21, align 2, !tbaa !13
  %23 = icmp eq i16 %22, -1
  br i1 %23, label %24, label %29

24:                                               ; preds = %20
  %25 = trunc i64 %indvars.iv to i8
  %26 = add i32 %.07285, -1
  %27 = zext i32 %.07285 to i64
  %.idx81 = shl nuw nsw i64 %27, 2
  %.offs82 = or disjoint i64 %.idx81, 2
  %28 = getelementptr inbounds nuw i8, ptr %6, i64 %.offs82
  store i8 %25, ptr %28, align 2, !tbaa !37
  br label %31

29:                                               ; preds = %20
  %30 = sext i16 %22 to i32
  %.not80 = icmp sgt i32 %18, %30
  %spec.select = select i1 %.not80, i16 %.06986, i16 0
  br label %31

31:                                               ; preds = %24, %29
  %.sink = phi i16 [ 1, %24 ], [ %22, %29 ]
  %.173 = phi i32 [ %26, %24 ], [ %.07285, %29 ]
  %.271 = phi i16 [ %.06986, %24 ], [ %spec.select, %29 ]
  %32 = getelementptr inbounds nuw [256 x i16], ptr %5, i64 0, i64 %indvars.iv
  store i16 %.sink, ptr %32, align 2, !tbaa !13
  %indvars.iv.next = add nuw nsw i64 %indvars.iv, 1
  %exitcond.not = icmp eq i64 %indvars.iv.next, %wide.trip.count
  br i1 %exitcond.not, label %.preheader83, label %20, !llvm.loop !53

.preheader83:                                     ; preds = %31, %._crit_edge
  %indvars.iv94 = phi i64 [ %indvars.iv.next95, %._crit_edge ], [ 0, %31 ]
  %.06491 = phi i32 [ %.1.lcssa, %._crit_edge ], [ 0, %31 ]
  %33 = getelementptr inbounds nuw i16, ptr %1, i64 %indvars.iv94
  %34 = load i16, ptr %33, align 2, !tbaa !13
  %35 = sext i16 %34 to i32
  %36 = icmp sgt i16 %34, 0
  br i1 %36, label %.lr.ph, label %._crit_edge

.lr.ph:                                           ; preds = %.preheader83
  %37 = trunc i64 %indvars.iv94 to i8
  br label %38

38:                                               ; preds = %.lr.ph, %43
  %.189 = phi i32 [ %.06491, %.lr.ph ], [ %.2, %43 ]
  %.06688 = phi i32 [ 0, %.lr.ph ], [ %44, %43 ]
  %39 = zext i32 %.189 to i64
  %.idx = shl nuw nsw i64 %39, 2
  %.offs = or disjoint i64 %.idx, 2
  %40 = getelementptr inbounds nuw i8, ptr %6, i64 %.offs
  store i8 %37, ptr %40, align 2, !tbaa !37
  br label %41

41:                                               ; preds = %41, %38
  %.1.pn = phi i32 [ %.189, %38 ], [ %.2, %41 ]
  %.pn = add i32 %12, %.1.pn
  %.2 = and i32 %.pn, %8
  %42 = icmp ugt i32 %.2, %.173
  br i1 %42, label %41, label %43, !llvm.loop !54

43:                                               ; preds = %41
  %44 = add nuw nsw i32 %.06688, 1
  %exitcond93.not = icmp eq i32 %44, %35
  br i1 %exitcond93.not, label %._crit_edge, label %38, !llvm.loop !55

._crit_edge:                                      ; preds = %43, %.preheader83
  %.1.lcssa = phi i32 [ %.06491, %.preheader83 ], [ %.2, %43 ]
  %indvars.iv.next95 = add nuw nsw i64 %indvars.iv94, 1
  %exitcond98.not = icmp eq i64 %indvars.iv.next95, %wide.trip.count
  br i1 %exitcond98.not, label %45, label %.preheader83, !llvm.loop !56

45:                                               ; preds = %._crit_edge
  %.not79 = icmp eq i32 %.1.lcssa, 0
  br i1 %.not79, label %.preheader.preheader, label %65

.preheader.preheader:                             ; preds = %45
  %wide.trip.count102 = zext nneg i32 %7 to i64
  br label %.preheader

.preheader:                                       ; preds = %.preheader.preheader, %.preheader
  %indvars.iv99 = phi i64 [ 0, %.preheader.preheader ], [ %indvars.iv.next100, %.preheader ]
  %46 = getelementptr inbounds nuw %struct.FSE_decode_t, ptr %6, i64 %indvars.iv99
  %47 = getelementptr inbounds nuw i8, ptr %46, i64 2
  %48 = load i8, ptr %47, align 2, !tbaa !37
  %49 = zext i8 %48 to i64
  %50 = getelementptr inbounds nuw [256 x i16], ptr %5, i64 0, i64 %49
  %51 = load i16, ptr %50, align 2, !tbaa !13
  %52 = add i16 %51, 1
  store i16 %52, ptr %50, align 2, !tbaa !13
  %53 = zext i16 %51 to i32
  %54 = tail call range(i32 0, 33) i32 @llvm.ctlz.i32(i32 %53, i1 true)
  %55 = xor i32 %54, 31
  %56 = sub nsw i32 %3, %55
  %57 = trunc nsw i32 %56 to i8
  %58 = getelementptr inbounds nuw i8, ptr %46, i64 3
  store i8 %57, ptr %58, align 1, !tbaa !38
  %59 = and i32 %56, 255
  %60 = shl i32 %53, %59
  %61 = sub i32 %60, %7
  %62 = trunc i32 %61 to i16
  store i16 %62, ptr %46, align 2, !tbaa !35
  %indvars.iv.next100 = add nuw nsw i64 %indvars.iv99, 1
  %exitcond103.not = icmp eq i64 %indvars.iv.next100, %wide.trip.count102
  br i1 %exitcond103.not, label %63, label %.preheader, !llvm.loop !57

63:                                               ; preds = %.preheader
  %64 = getelementptr inbounds nuw i8, ptr %0, i64 2
  store i16 %.271, ptr %64, align 2, !tbaa !34
  br label %65

65:                                               ; preds = %45, %14, %4, %63
  %.0 = phi i64 [ 0, %63 ], [ -3, %4 ], [ -2, %14 ], [ -1, %45 ]
  call void @llvm.lifetime.end.p0(i64 512, ptr nonnull %5) #16
  ret i64 %.0
}